; Function Attrs: nounwind uwtable
define i32 @wc_ecc_export_point_der_ex(i32 noundef %curve_idx, ptr noundef %point, ptr noundef %out, ptr noundef %outLen, i32 noundef %compressed) local_unnamed_addr #2 {
entry:
  %cmp = icmp eq i32 %compressed, 0
  br i1 %cmp, label %if.then, label %return

if.then:                                          ; preds = %entry
  %call = tail call i32 @wc_ecc_export_point_der(i32 noundef %curve_idx, ptr noundef %point, ptr noundef %out, ptr noundef %outLen)
  br label %return

return:                                           ; preds = %entry, %if.then
  %retval.0 = phi i32 [ %call, %if.then ], [ -174, %entry ]
  ret i32 %retval.0
}